target datalayout = "e-m:e-p270:32:32-p271:32:32-p272:64:64-i64:64-i128:128-f80:128-n8:16:32:64-S128"
target triple = "x86_64-pc-linux-gnu"

@_ZN10ODDLParser7GrammarL8BoolTrueE = internal global ptr @.str.41, align 8
@_ZN10ODDLParser7GrammarL9BoolFalseE = internal global ptr @.str.42, align 8

; Function Attrs: inlinehint mustprogress nounwind uwtable
define linkonce_odr hidden noundef zeroext i1 @_ZN10ODDLParser9isNewLineIcEEbT_(i8 noundef signext %0) #12 comdat {
  %2 = alloca i8, align 1
  store i8 %0, ptr %2, align 1
  %3 = load i8, ptr %2, align 1
  %4 = sext i8 %3 to i32
  %5 = icmp eq i32 10, %4
  br i1 %5, label %10, label %6

6:                                                ; preds = %1
  %7 = load i8, ptr %2, align 1
  %8 = sext i8 %7 to i32
  %9 = icmp eq i32 13, %8
  br label %10

10:                                               ; preds = %6, %1
  %11 = phi i1 [ true, %1 ], [ %9, %6 ]
  ret i1 %11
}

; Function Attrs: inlinehint mustprogress nounwind uwtable
define linkonce_odr hidden noundef zeroext i1 @_ZN10ODDLParser7isSpaceIcEEbT_(i8 noundef signext %0) #12 comdat {
  %2 = alloca i8, align 1
  store i8 %0, ptr %2, align 1
  %3 = load i8, ptr %2, align 1
  %4 = sext i8 %3 to i32
  %5 = icmp eq i32 32, %4
  br i1 %5, label %10, label %6

6:                                                ; preds = %1
  %7 = load i8, ptr %2, align 1
  %8 = sext i8 %7 to i32
  %9 = icmp eq i32 9, %8
  br label %10

10:                                               ; preds = %6, %1
  %11 = phi i1 [ true, %1 ], [ %9, %6 ]
  ret i1 %11
}

; Function Attrs: inlinehint mustprogress uwtable
define linkonce_odr hidden noundef zeroext i1 @_ZN10ODDLParser11isSeparatorIcEEbT_(i8 noundef signext %0) #10 comdat {
  %2 = alloca i1, align 1
  %3 = alloca i8, align 1
  store i8 %0, ptr %3, align 1
  %4 = load i8, ptr %3, align 1
  %5 = call noundef zeroext i1 @_ZN10ODDLParser7isSpaceIcEEbT_(i8 noundef signext %4)
  br i1 %5, label %30, label %6

6:                                                ; preds = %1
  %7 = load i8, ptr %3, align 1
  %8 = sext i8 %7 to i32
  %9 = icmp eq i32 44, %8
  br i1 %9, label %30, label %10

10:                                               ; preds = %6
  %11 = load i8, ptr %3, align 1
  %12 = sext i8 %11 to i32
  %13 = icmp eq i32 123, %12
  br i1 %13, label %30, label %14

14:                                               ; preds = %10
  %15 = load i8, ptr %3, align 1
  %16 = sext i8 %15 to i32
  %17 = icmp eq i32 125, %16
  br i1 %17, label %30, label %18

18:                                               ; preds = %14
  %19 = load i8, ptr %3, align 1
  %20 = sext i8 %19 to i32
  %21 = icmp eq i32 91, %20
  br i1 %21, label %30, label %22

22:                                               ; preds = %18
  %23 = load i8, ptr %3, align 1
  %24 = sext i8 %23 to i32
  %25 = icmp eq i32 40, %24
  br i1 %25, label %30, label %26

26:                                               ; preds = %22
  %27 = load i8, ptr %3, align 1
  %28 = sext i8 %27 to i32
  %29 = icmp eq i32 41, %28
  br i1 %29, label %30, label %31

30:                                               ; preds = %26, %22, %18, %14, %10, %6, %1
  store i1 true, ptr %2, align 1
  br label %32

31:                                               ; preds = %26
  store i1 false, ptr %2, align 1
  br label %32

32:                                               ; preds = %31, %30
  %33 = load i1, ptr %2, align 1
  ret i1 %33
}

; Function Attrs: inlinehint mustprogress uwtable
define linkonce_odr hidden noundef ptr @_ZN10ODDLParser16lookForNextTokenIcEEPT_S2_S2_(ptr noundef %0, ptr noundef %1) #10 comdat {
  %3 = alloca ptr, align 8
  %4 = alloca ptr, align 8
  store ptr %0, ptr %3, align 8
  store ptr %1, ptr %4, align 8
  br label %5

5:                                                ; preds = %26, %2
  %6 = load ptr, ptr %3, align 8
  %7 = load ptr, ptr %4, align 8
  %8 = icmp ne ptr %6, %7
  br i1 %8, label %9, label %24

9:                                                ; preds = %5
  %10 = load ptr, ptr %3, align 8
  %11 = load i8, ptr %10, align 1
  %12 = call noundef zeroext i1 @_ZN10ODDLParser7isSpaceIcEEbT_(i8 noundef signext %11)
  br i1 %12, label %22, label %13

13:                                               ; preds = %9
  %14 = load ptr, ptr %3, align 8
  %15 = load i8, ptr %14, align 1
  %16 = call noundef zeroext i1 @_ZN10ODDLParser9isNewLineIcEEbT_(i8 noundef signext %15)
  br i1 %16, label %22, label %17

17:                                               ; preds = %13
  %18 = load ptr, ptr %3, align 8
  %19 = load i8, ptr %18, align 1
  %20 = sext i8 %19 to i32
  %21 = icmp eq i32 44, %20
  br label %22

22:                                               ; preds = %17, %13, %9
  %23 = phi i1 [ true, %13 ], [ true, %9 ], [ %21, %17 ]
  br label %24

24:                                               ; preds = %22, %5
  %25 = phi i1 [ false, %5 ], [ %23, %22 ]
  br i1 %25, label %26, label %29

26:                                               ; preds = %24
  %27 = load ptr, ptr %3, align 8
  %28 = getelementptr inbounds nuw i8, ptr %27, i32 1
  store ptr %28, ptr %3, align 8
  br label %5, !llvm.loop !13

29:                                               ; preds = %24
  %30 = load ptr, ptr %3, align 8
  ret ptr %30
}

; Function Attrs: mustprogress uwtable
define hidden noundef ptr @_ZN10ODDLParser13OpenDDLParser19parseBooleanLiteralEPcS1_PPNS_5ValueE(ptr noundef %0, ptr noundef %1, ptr noundef %2) #6 align 2 {
  %4 = alloca ptr, align 8
  %5 = alloca ptr, align 8
  %6 = alloca ptr, align 8
  %7 = alloca ptr, align 8
  %8 = alloca ptr, align 8
  %9 = alloca i64, align 8
  %10 = alloca i32, align 4
  %11 = alloca i32, align 4
  store ptr %0, ptr %5, align 8
  store ptr %1, ptr %6, align 8
  store ptr %2, ptr %7, align 8
  %12 = load ptr, ptr %7, align 8
  store ptr null, ptr %12, align 8
  %13 = load ptr, ptr %5, align 8
  %14 = icmp eq ptr null, %13
  br i1 %14, label %19, label %15

15:                                               ; preds = %3
  %16 = load ptr, ptr %5, align 8
  %17 = load ptr, ptr %6, align 8
  %18 = icmp eq ptr %16, %17
  br i1 %18, label %19, label %21

19:                                               ; preds = %15, %3
  %20 = load ptr, ptr %5, align 8
  store ptr %20, ptr %4, align 8
  br label %71

21:                                               ; preds = %15
  %22 = load ptr, ptr %5, align 8
  %23 = load ptr, ptr %6, align 8
  %24 = call noundef ptr @_ZN10ODDLParser16lookForNextTokenIcEEPT_S2_S2_(ptr noundef %22, ptr noundef %23)
  store ptr %24, ptr %5, align 8
  call void @llvm.lifetime.start.p0(i64 8, ptr %8) #3
  %25 = load ptr, ptr %5, align 8
  store ptr %25, ptr %8, align 8
  call void @llvm.lifetime.start.p0(i64 8, ptr %9) #3
  store i64 0, ptr %9, align 8
  br label %26

26:                                               ; preds = %36, %21
  %27 = load ptr, ptr %5, align 8
  %28 = load i8, ptr %27, align 1
  %29 = call noundef zeroext i1 @_ZN10ODDLParser11isSeparatorIcEEbT_(i8 noundef signext %28)
  br i1 %29, label %34, label %30

30:                                               ; preds = %26
  %31 = load ptr, ptr %5, align 8
  %32 = load ptr, ptr %6, align 8
  %33 = icmp ne ptr %31, %32
  br label %34

34:                                               ; preds = %30, %26
  %35 = phi i1 [ false, %26 ], [ %33, %30 ]
  br i1 %35, label %36, label %41

36:                                               ; preds = %34
  %37 = load ptr, ptr %5, align 8
  %38 = getelementptr inbounds nuw i8, ptr %37, i32 1
  store ptr %38, ptr %5, align 8
  %39 = load i64, ptr %9, align 8
  %40 = add i64 %39, 1
  store i64 %40, ptr %9, align 8
  br label %26, !llvm.loop !20

41:                                               ; preds = %34
  call void @llvm.lifetime.start.p0(i64 4, ptr %10) #3
  %42 = load ptr, ptr @_ZN10ODDLParser7GrammarL8BoolTrueE, align 8
  %43 = load ptr, ptr %8, align 8
  %44 = load i64, ptr %9, align 8
  %45 = call i32 @strncmp(ptr noundef %42, ptr noundef %43, i64 noundef %44) #23
  store i32 %45, ptr %10, align 4
  %46 = load i32, ptr %10, align 4
  %47 = icmp ne i32 0, %46
  br i1 %47, label %48, label %63

48:                                               ; preds = %41
  %49 = load ptr, ptr @_ZN10ODDLParser7GrammarL9BoolFalseE, align 8
  %50 = load ptr, ptr %8, align 8
  %51 = load i64, ptr %9, align 8
  %52 = call i32 @strncmp(ptr noundef %49, ptr noundef %50, i64 noundef %51) #23
  store i32 %52, ptr %10, align 4
  %53 = load i32, ptr %10, align 4
  %54 = icmp ne i32 0, %53
  br i1 %54, label %55, label %58

55:                                               ; preds = %48
  %56 = load ptr, ptr %7, align 8
  store ptr null, ptr %56, align 8
  %57 = load ptr, ptr %5, align 8
  store ptr %57, ptr %4, align 8
  store i32 1, ptr %11, align 4
  br label %70

58:                                               ; preds = %48
  %59 = call noundef ptr @_ZN10ODDLParser14ValueAllocator13allocPrimDataENS_5Value9ValueTypeEm(i32 noundef 0, i64 noundef 1)
  %60 = load ptr, ptr %7, align 8
  store ptr %59, ptr %60, align 8
  %61 = load ptr, ptr %7, align 8
  %62 = load ptr, ptr %61, align 8
  call void @_ZN10ODDLParser5Value7setBoolEb(ptr noundef nonnull align 8 dereferenceable(32) %62, i1 noundef zeroext false)
  br label %68

63:                                               ; preds = %41
  %64 = call noundef ptr @_ZN10ODDLParser14ValueAllocator13allocPrimDataENS_5Value9ValueTypeEm(i32 noundef 0, i64 noundef 1)
  %65 = load ptr, ptr %7, align 8
  store ptr %64, ptr %65, align 8
  %66 = load ptr, ptr %7, align 8
  %67 = load ptr, ptr %66, align 8
  call void @_ZN10ODDLParser5Value7setBoolEb(ptr noundef nonnull align 8 dereferenceable(32) %67, i1 noundef zeroext true)
  br label %68

68:                                               ; preds = %63, %58
  %69 = load ptr, ptr %5, align 8
  store ptr %69, ptr %4, align 8
  store i32 1, ptr %11, align 4
  br label %70

70:                                               ; preds = %68, %55
  call void @llvm.lifetime.end.p0(i64 4, ptr %10) #3
  call void @llvm.lifetime.end.p0(i64 8, ptr %9) #3
  call void @llvm.lifetime.end.p0(i64 8, ptr %8) #3
  br label %71

71:                                               ; preds = %70, %19
  %72 = load ptr, ptr %4, align 8
  ret ptr %72
}