; Function Attrs: mustprogress uwtable
define hidden noundef ptr @_ZN10ODDLParser13OpenDDLParser19parseBooleanLiteralEPcS1_PPNS_5ValueE(ptr noundef %0, ptr noundef %1, ptr noundef writeonly captures(none) initializes((0, 8)) %2) local_unnamed_addr #6 align 2 {
  %4 = ptrtoint ptr %1 to i64
  store ptr null, ptr %2, align 8
  %5 = icmp eq ptr %0, null
  %6 = icmp eq ptr %0, %1
  %or.cond = or i1 %5, %6
  br i1 %or.cond, label %22, label %.lr.ph.preheader.i

.lr.ph.preheader.i:                               ; preds = %3
  %7 = ptrtoint ptr %0 to i64
  %8 = sub i64 %4, %7
  %scevgep.i = getelementptr i8, ptr %0, i64 %8
  br label %.lr.ph.i

.lr.ph.i:                                         ; preds = %.critedge2.i, %.lr.ph.preheader.i
  %.010.i = phi ptr [ %10, %.critedge2.i ], [ %0, %.lr.ph.preheader.i ]
  %9 = load i8, ptr %.010.i, align 1
  switch i8 %9, label %_ZN10ODDLParser16lookForNextTokenIcEEPT_S2_S2_.exit [
    i8 32, label %.critedge2.i
    i8 9, label %.critedge2.i
    i8 13, label %.critedge2.i
    i8 10, label %.critedge2.i
    i8 44, label %.critedge2.i
  ]

.critedge2.i:                                     ; preds = %.lr.ph.i, %.lr.ph.i, %.lr.ph.i, %.lr.ph.i, %.lr.ph.i
  %10 = getelementptr inbounds nuw i8, ptr %.010.i, i64 1
  %.not.i = icmp eq ptr %10, %1
  br i1 %.not.i, label %_ZN10ODDLParser16lookForNextTokenIcEEPT_S2_S2_.exit, label %.lr.ph.i, !llvm.loop !8

_ZN10ODDLParser16lookForNextTokenIcEEPT_S2_S2_.exit: ; preds = %.lr.ph.i, %.critedge2.i
  %.0.lcssa.i = phi ptr [ %.010.i, %.lr.ph.i ], [ %scevgep.i, %.critedge2.i ]
  %11 = icmp eq ptr %.0.lcssa.i, %1
  br i1 %11, label %switch.early.test._crit_edge, label %switch.early.test.preheader

switch.early.test.preheader:                      ; preds = %_ZN10ODDLParser16lookForNextTokenIcEEPT_S2_S2_.exit
  %.0.lcssa.i58 = ptrtoint ptr %.0.lcssa.i to i64
  %12 = sub i64 %4, %.0.lcssa.i58
  %scevgep = getelementptr i8, ptr %.0.lcssa.i, i64 %12
  br label %switch.early.test

switch.early.test:                                ; preds = %switch.early.test.preheader, %14
  %.033 = phi i64 [ %16, %14 ], [ 0, %switch.early.test.preheader ]
  %.02732 = phi ptr [ %15, %14 ], [ %.0.lcssa.i, %switch.early.test.preheader ]
  %13 = load i8, ptr %.02732, align 1
  switch i8 %13, label %14 [
    i8 125, label %switch.early.test._crit_edge
    i8 123, label %switch.early.test._crit_edge
    i8 91, label %switch.early.test._crit_edge
    i8 44, label %switch.early.test._crit_edge
    i8 41, label %switch.early.test._crit_edge
    i8 40, label %switch.early.test._crit_edge
    i8 32, label %switch.early.test._crit_edge
    i8 9, label %switch.early.test._crit_edge
  ]

14:                                               ; preds = %switch.early.test
  %15 = getelementptr inbounds nuw i8, ptr %.02732, i64 1
  %16 = add i64 %.033, 1
  %17 = icmp eq ptr %15, %1
  br i1 %17, label %switch.early.test._crit_edge, label %switch.early.test, !llvm.loop !33

switch.early.test._crit_edge:                     ; preds = %14, %switch.early.test, %switch.early.test, %switch.early.test, %switch.early.test, %switch.early.test, %switch.early.test, %switch.early.test, %switch.early.test, %_ZN10ODDLParser16lookForNextTokenIcEEPT_S2_S2_.exit
  %.027.lcssa = phi ptr [ %.0.lcssa.i, %_ZN10ODDLParser16lookForNextTokenIcEEPT_S2_S2_.exit ], [ %.02732, %switch.early.test ], [ %.02732, %switch.early.test ], [ %.02732, %switch.early.test ], [ %.02732, %switch.early.test ], [ %.02732, %switch.early.test ], [ %.02732, %switch.early.test ], [ %.02732, %switch.early.test ], [ %.02732, %switch.early.test ], [ %scevgep, %14 ]
  %.0.lcssa = phi i64 [ 0, %_ZN10ODDLParser16lookForNextTokenIcEEPT_S2_S2_.exit ], [ %.033, %switch.early.test ], [ %.033, %switch.early.test ], [ %.033, %switch.early.test ], [ %.033, %switch.early.test ], [ %.033, %switch.early.test ], [ %.033, %switch.early.test ], [ %.033, %switch.early.test ], [ %.033, %switch.early.test ], [ %12, %14 ]
  %18 = tail call i32 @strncmp(ptr noundef nonnull @.str.41, ptr noundef %.0.lcssa.i, i64 noundef %.0.lcssa) #34
  %.not = icmp eq i32 %18, 0
  br i1 %.not, label %.sink.split, label %19

19:                                               ; preds = %switch.early.test._crit_edge
  %20 = tail call i32 @strncmp(ptr noundef nonnull @.str.42, ptr noundef %.0.lcssa.i, i64 noundef %.0.lcssa) #34
  %.not31 = icmp eq i32 %20, 0
  br i1 %.not31, label %.sink.split, label %22

.sink.split:                                      ; preds = %switch.early.test._crit_edge, %19
  %21 = tail call noundef ptr @_ZN10ODDLParser14ValueAllocator13allocPrimDataENS_5Value9ValueTypeEm(i32 noundef 0, i64 noundef 1)
  store ptr %21, ptr %2, align 8
  tail call void @_ZN10ODDLParser5Value7setBoolEb(ptr noundef nonnull align 8 dereferenceable(32) %21, i1 noundef zeroext %.not)
  br label %22

22:                                               ; preds = %.sink.split, %19, %3
  %.026 = phi ptr [ %0, %3 ], [ %.027.lcssa, %19 ], [ %.027.lcssa, %.sink.split ]
  ret ptr %.026
}